target datalayout = "e-m:e-p270:32:32-p271:32:32-p272:64:64-i64:64-i128:128-f80:128-n8:16:32:64-S128"
target triple = "x86_64-pc-linux-gnu"

@_ZL22ZPointerLoadShiftTable = internal constant [9 x i32] [i32 24, i32 13, i32 14, i32 0, i32 15, i32 0, i32 0, i32 0, i32 16], align 16
@ZAddressHeapBase = external global i64, align 8
@ZAddressOffsetMax = external global i64, align 8

; Function Attrs: mustprogress nounwind uwtable
define linkonce_odr hidden noundef i64 @_ZN8ZPointer10remap_bitsEm(i64 noundef %0) #1 comdat align 2 {
  %2 = alloca i64, align 8
  store i64 %0, ptr %2, align 8
  %3 = load i64, ptr %2, align 8
  %4 = and i64 %3, 61440
  ret i64 %4
}

; Function Attrs: mustprogress nounwind uwtable
define linkonce_odr hidden noundef zeroext i1 @_Z13is_power_of_2ImTnNSt9enable_ifIXcvbsr3std11is_integralIT_EE5valueEiE4typeELi0EEbS1_(i64 noundef %0) #1 comdat {
  %2 = alloca i64, align 8
  store i64 %0, ptr %2, align 8
  %3 = load i64, ptr %2, align 8
  %4 = icmp ugt i64 %3, 0
  br i1 %4, label %5, label %11

5:                                                ; preds = %1
  %6 = load i64, ptr %2, align 8
  %7 = load i64, ptr %2, align 8
  %8 = sub i64 %7, 1
  %9 = and i64 %6, %8
  %10 = icmp eq i64 %9, 0
  br label %11

11:                                               ; preds = %5, %1
  %12 = phi i1 [ false, %1 ], [ %10, %5 ]
  ret i1 %12
}

; Function Attrs: mustprogress nounwind uwtable
define linkonce_odr hidden noundef i32 @_ZN8ZPointer17load_shift_lookupEm(i64 noundef %0) #1 comdat align 2 {
  %2 = alloca i64, align 8
  %3 = alloca i64, align 8
  store i64 %0, ptr %2, align 8
  %4 = load i64, ptr %2, align 8
  %5 = call noundef i32 @_ZN8ZPointer23load_shift_lookup_indexEm(i64 noundef %4)
  %6 = sext i32 %5 to i64
  store i64 %6, ptr %3, align 8
  %7 = load i64, ptr %3, align 8
  %8 = getelementptr inbounds [9 x i32], ptr @_ZL22ZPointerLoadShiftTable, i64 0, i64 %7
  %9 = load i32, ptr %8, align 4
  ret i32 %9
}

; Function Attrs: mustprogress nounwind uwtable
define linkonce_odr hidden noundef zeroext i1 @_Z13is_power_of_2IiTnNSt9enable_ifIXcvbsr3std11is_integralIT_EE5valueEiE4typeELi0EEbS1_(i32 noundef %0) #1 comdat {
  %2 = alloca i32, align 4
  store i32 %0, ptr %2, align 4
  %3 = load i32, ptr %2, align 4
  %4 = icmp sgt i32 %3, 0
  br i1 %4, label %5, label %11

5:                                                ; preds = %1
  %6 = load i32, ptr %2, align 4
  %7 = load i32, ptr %2, align 4
  %8 = sub nsw i32 %7, 1
  %9 = and i32 %6, %8
  %10 = icmp eq i32 %9, 0
  br label %11

11:                                               ; preds = %5, %1
  %12 = phi i1 [ false, %1 ], [ %10, %5 ]
  ret i1 %12
}

; Function Attrs: mustprogress nounwind uwtable
define linkonce_odr hidden noundef i32 @_ZN8ZPointer23load_shift_lookup_indexEm(i64 noundef %0) #1 comdat align 2 {
  %2 = alloca i64, align 8
  store i64 %0, ptr %2, align 8
  %3 = load i64, ptr %2, align 8
  %4 = lshr i64 %3, 12
  %5 = and i64 %4, 15
  %6 = trunc i64 %5 to i32
  ret i32 %6
}

; Function Attrs: mustprogress nounwind uwtable
define linkonce_odr hidden noundef zeroext i1 @_Z7is_null8zaddress(i64 noundef %0) #1 comdat {
  %2 = alloca i64, align 8
  store i64 %0, ptr %2, align 8
  %3 = load i64, ptr %2, align 8
  %4 = icmp eq i64 %3, 0
  ret i1 %4
}

; Function Attrs: mustprogress nounwind uwtable
define linkonce_odr hidden noundef zeroext i1 @_Z8is_valid8zpointerb(i64 noundef %0, i1 noundef zeroext %1) #1 comdat {
  %3 = alloca i1, align 1
  %4 = alloca i64, align 8
  %5 = alloca i8, align 1
  %6 = alloca i64, align 8
  %7 = alloca i32, align 4
  %8 = alloca i32, align 4
  %9 = alloca i64, align 8
  %10 = alloca i64, align 8
  %11 = alloca i64, align 8
  %12 = alloca i64, align 8
  %13 = alloca i64, align 8
  store i64 %0, ptr %4, align 8
  %14 = zext i1 %1 to i8
  store i8 %14, ptr %5, align 1
  %15 = load i8, ptr %5, align 1
  %16 = trunc i8 %15 to i1
  br i1 %16, label %17, label %18

17:                                               ; preds = %2
  store i1 true, ptr %3, align 1
  br label %97

18:                                               ; preds = %2
  %19 = load i64, ptr %4, align 8
  store i64 %19, ptr %6, align 8
  %20 = load i64, ptr %6, align 8
  %21 = icmp eq i64 %20, 0
  br i1 %21, label %22, label %23

22:                                               ; preds = %18
  store i1 false, ptr %3, align 1
  br label %97

23:                                               ; preds = %18
  %24 = load i64, ptr %6, align 8
  %25 = and i64 %24, -65521
  %26 = icmp ne i64 %25, 0
  br i1 %26, label %27, label %56

27:                                               ; preds = %23
  %28 = load i64, ptr %6, align 8
  %29 = call noundef i32 @_ZN8ZPointer23load_shift_lookup_indexEm(i64 noundef %28)
  store i32 %29, ptr %7, align 4
  %30 = load i32, ptr %7, align 4
  %31 = icmp ne i32 %30, 0
  br i1 %31, label %32, label %36

32:                                               ; preds = %27
  %33 = load i32, ptr %7, align 4
  %34 = call noundef zeroext i1 @_Z13is_power_of_2IiTnNSt9enable_ifIXcvbsr3std11is_integralIT_EE5valueEiE4typeELi0EEbS1_(i32 noundef %33)
  br i1 %34, label %36, label %35

35:                                               ; preds = %32
  store i1 false, ptr %3, align 1
  br label %97

36:                                               ; preds = %32, %27
  %37 = load i64, ptr %6, align 8
  %38 = call noundef i32 @_ZN8ZPointer17load_shift_lookupEm(i64 noundef %37)
  store i32 %38, ptr %8, align 4
  %39 = load i64, ptr %6, align 8
  %40 = load i64, ptr @ZAddressHeapBase, align 8
  %41 = load i32, ptr %8, align 4
  %42 = zext i32 %41 to i64
  %43 = shl i64 %40, %42
  %44 = and i64 %39, %43
  %45 = call noundef zeroext i1 @_Z13is_power_of_2ImTnNSt9enable_ifIXcvbsr3std11is_integralIT_EE5valueEiE4typeELi0EEbS1_(i64 noundef %44)
  br i1 %45, label %47, label %46

46:                                               ; preds = %36
  store i1 false, ptr %3, align 1
  br label %97

47:                                               ; preds = %36
  %48 = load i64, ptr %6, align 8
  %49 = load i32, ptr %8, align 4
  %50 = zext i32 %49 to i64
  %51 = lshr i64 %48, %50
  %52 = and i64 %51, 7
  %53 = icmp ne i64 %52, 0
  br i1 %53, label %54, label %55

54:                                               ; preds = %47
  store i1 false, ptr %3, align 1
  br label %97

55:                                               ; preds = %47
  br label %56

56:                                               ; preds = %55, %23
  %57 = load i64, ptr %6, align 8
  %58 = call noundef i64 @_ZN8ZPointer10remap_bitsEm(i64 noundef %57)
  store i64 %58, ptr %9, align 8
  %59 = load i64, ptr %9, align 8
  %60 = call noundef zeroext i1 @_Z13is_power_of_2ImTnNSt9enable_ifIXcvbsr3std11is_integralIT_EE5valueEiE4typeELi0EEbS1_(i64 noundef %59)
  br i1 %60, label %62, label %61

61:                                               ; preds = %56
  store i1 false, ptr %3, align 1
  br label %97

62:                                               ; preds = %56
  %63 = load i64, ptr %6, align 8
  %64 = and i64 %63, 4080
  store i64 %64, ptr %10, align 8
  %65 = load i64, ptr %10, align 8
  %66 = and i64 %65, 768
  store i64 %66, ptr %11, align 8
  %67 = load i64, ptr %10, align 8
  %68 = and i64 %67, 3264
  store i64 %68, ptr %12, align 8
  %69 = load i64, ptr %10, align 8
  %70 = and i64 %69, 48
  store i64 %70, ptr %13, align 8
  %71 = load i64, ptr %11, align 8
  %72 = call noundef zeroext i1 @_Z13is_power_of_2ImTnNSt9enable_ifIXcvbsr3std11is_integralIT_EE5valueEiE4typeELi0EEbS1_(i64 noundef %71)
  br i1 %72, label %74, label %73

73:                                               ; preds = %62
  store i1 false, ptr %3, align 1
  br label %97

74:                                               ; preds = %62
  %75 = load i64, ptr %12, align 8
  %76 = call noundef zeroext i1 @_Z13is_power_of_2ImTnNSt9enable_ifIXcvbsr3std11is_integralIT_EE5valueEiE4typeELi0EEbS1_(i64 noundef %75)
  br i1 %76, label %78, label %77

77:                                               ; preds = %74
  store i1 false, ptr %3, align 1
  br label %97

78:                                               ; preds = %74
  %79 = load i64, ptr %13, align 8
  %80 = icmp eq i64 %79, 0
  br i1 %80, label %81, label %82

81:                                               ; preds = %78
  store i1 false, ptr %3, align 1
  br label %97

82:                                               ; preds = %78
  %83 = load i64, ptr %11, align 8
  %84 = load i64, ptr %12, align 8
  %85 = or i64 %83, %84
  %86 = load i64, ptr %13, align 8
  %87 = or i64 %85, %86
  %88 = load i64, ptr %10, align 8
  %89 = icmp ne i64 %87, %88
  br i1 %89, label %90, label %91

90:                                               ; preds = %82
  store i1 false, ptr %3, align 1
  br label %97

91:                                               ; preds = %82
  %92 = load i64, ptr %6, align 8
  %93 = and i64 %92, 15
  %94 = icmp ne i64 %93, 0
  br i1 %94, label %95, label %96

95:                                               ; preds = %91
  store i1 false, ptr %3, align 1
  br label %97

96:                                               ; preds = %91
  store i1 true, ptr %3, align 1
  br label %97

97:                                               ; preds = %96, %95, %90, %81, %77, %73, %61, %54, %46, %35, %22, %17
  %98 = load i1, ptr %3, align 1
  ret i1 %98
}

; Function Attrs: mustprogress nounwind uwtable
define linkonce_odr hidden noundef zeroext i1 @_Z8is_valid8zaddressb(i64 noundef %0, i1 noundef zeroext %1) #1 comdat {
  %3 = alloca i1, align 1
  %4 = alloca i64, align 8
  %5 = alloca i8, align 1
  %6 = alloca i64, align 8
  store i64 %0, ptr %4, align 8
  %7 = zext i1 %1 to i8
  store i8 %7, ptr %5, align 1
  %8 = load i8, ptr %5, align 1
  %9 = trunc i8 %8 to i1
  br i1 %9, label %10, label %11

10:                                               ; preds = %2
  store i1 true, ptr %3, align 1
  br label %35

11:                                               ; preds = %2
  %12 = load i64, ptr %4, align 8
  %13 = call noundef zeroext i1 @_Z7is_null8zaddress(i64 noundef %12)
  br i1 %13, label %14, label %15

14:                                               ; preds = %11
  store i1 true, ptr %3, align 1
  br label %35

15:                                               ; preds = %11
  %16 = load i64, ptr %4, align 8
  store i64 %16, ptr %6, align 8
  %17 = load i64, ptr %6, align 8
  %18 = and i64 %17, 7
  %19 = icmp ne i64 %18, 0
  br i1 %19, label %20, label %21

20:                                               ; preds = %15
  store i1 false, ptr %3, align 1
  br label %35

21:                                               ; preds = %15
  %22 = load i64, ptr %6, align 8
  %23 = load i64, ptr @ZAddressHeapBase, align 8
  %24 = and i64 %22, %23
  %25 = icmp eq i64 %24, 0
  br i1 %25, label %26, label %27

26:                                               ; preds = %21
  store i1 false, ptr %3, align 1
  br label %35

27:                                               ; preds = %21
  %28 = load i64, ptr %6, align 8
  %29 = load i64, ptr @ZAddressHeapBase, align 8
  %30 = load i64, ptr @ZAddressOffsetMax, align 8
  %31 = add i64 %29, %30
  %32 = icmp uge i64 %28, %31
  br i1 %32, label %33, label %34

33:                                               ; preds = %27
  store i1 false, ptr %3, align 1
  br label %35

34:                                               ; preds = %27
  store i1 true, ptr %3, align 1
  br label %35

35:                                               ; preds = %34, %33, %26, %20, %14, %10
  %36 = load i1, ptr %3, align 1
  ret i1 %36
}

; Function Attrs: mustprogress nounwind uwtable
define hidden noundef zeroext i1 @_ZNK5ZHeap14print_locationEP12outputStreamm(ptr noundef nonnull align 64 dereferenceable(15937) %0, ptr noundef %1, i64 noundef %2) #1 align 2 {
  %4 = alloca i1, align 1
  %5 = alloca ptr, align 8
  %6 = alloca ptr, align 8
  %7 = alloca i64, align 8
  %8 = alloca i8, align 1
  %9 = alloca i8, align 1
  store ptr %0, ptr %5, align 8
  store ptr %1, ptr %6, align 8
  store i64 %2, ptr %7, align 8
  %10 = load ptr, ptr %5, align 8
  %11 = load i64, ptr %7, align 8
  %12 = call noundef zeroext i1 @_Z8is_valid8zaddressb(i64 noundef %11, i1 noundef zeroext false)
  %13 = zext i1 %12 to i8
  store i8 %13, ptr %8, align 1
  %14 = load i64, ptr %7, align 8
  %15 = call noundef zeroext i1 @_Z8is_valid8zpointerb(i64 noundef %14, i1 noundef zeroext false)
  %16 = zext i1 %15 to i8
  store i8 %16, ptr %9, align 1
  %17 = load i8, ptr %9, align 1
  %18 = trunc i8 %17 to i1
  br i1 %18, label %19, label %23

19:                                               ; preds = %3
  %20 = load i8, ptr %8, align 1
  %21 = trunc i8 %20 to i1
  br i1 %21, label %22, label %23

22:                                               ; preds = %19
  store i1 false, ptr %4, align 1
  br label %38

23:                                               ; preds = %19, %3
  %24 = load i8, ptr %9, align 1
  %25 = trunc i8 %24 to i1
  br i1 %25, label %26, label %30

26:                                               ; preds = %23
  %27 = load ptr, ptr %6, align 8
  %28 = load i64, ptr %7, align 8
  %29 = call noundef zeroext i1 @_ZNK5ZHeap14print_locationEP12outputStream8zpointer(ptr noundef nonnull align 64 dereferenceable(15937) %10, ptr noundef %27, i64 noundef %28)
  store i1 %29, ptr %4, align 1
  br label %38

30:                                               ; preds = %23
  %31 = load i8, ptr %8, align 1
  %32 = trunc i8 %31 to i1
  br i1 %32, label %33, label %37

33:                                               ; preds = %30
  %34 = load ptr, ptr %6, align 8
  %35 = load i64, ptr %7, align 8
  %36 = call noundef zeroext i1 @_ZNK5ZHeap14print_locationEP12outputStream8zaddress(ptr noundef nonnull align 64 dereferenceable(15937) %10, ptr noundef %34, i64 noundef %35)
  store i1 %36, ptr %4, align 1
  br label %38

37:                                               ; preds = %30
  store i1 false, ptr %4, align 1
  br label %38

38:                                               ; preds = %37, %33, %26, %22
  %39 = load i1, ptr %4, align 1
  ret i1 %39
}