; Function Attrs: mustprogress nounwind uwtable
define hidden noundef zeroext i1 @_ZNK5ZHeap14print_locationEP12outputStreamm(ptr nocapture noundef nonnull readonly align 64 dereferenceable(15937) %0, ptr noundef %1, i64 noundef %2) local_unnamed_addr #1 align 2 {
  %4 = icmp eq i64 %2, 0
  br i1 %4, label %.thread.thread, label %5

5:                                                ; preds = %3
  %6 = and i64 %2, 7
  %.not.i = icmp eq i64 %6, 0
  br i1 %.not.i, label %7, label %14

7:                                                ; preds = %5
  %8 = load i64, ptr @ZAddressHeapBase, align 8
  %9 = and i64 %8, %2
  %10 = icmp eq i64 %9, 0
  br i1 %10, label %14, label %11

11:                                               ; preds = %7
  %12 = load i64, ptr @ZAddressOffsetMax, align 8
  %13 = add i64 %12, %8
  %.not6.i = icmp ugt i64 %13, %2
  br label %14

14:                                               ; preds = %5, %7, %11
  %.0.i.ph = phi i1 [ %.not6.i, %11 ], [ false, %7 ], [ false, %5 ]
  %15 = and i64 %2, -65521
  %.not.i12 = icmp eq i64 %15, 0
  br i1 %.not.i12, label %37, label %16

16:                                               ; preds = %14
  %17 = trunc i64 %2 to i32
  %18 = lshr i32 %17, 12
  %19 = and i32 %18, 15
  %.not29.i = icmp eq i32 %19, 0
  br i1 %.not29.i, label %24, label %20

20:                                               ; preds = %16
  %21 = add nuw nsw i32 %18, 15
  %22 = and i32 %21, %19
  %23 = icmp eq i32 %22, 0
  br i1 %23, label %24, label %.thread

24:                                               ; preds = %20, %16
  %25 = lshr i64 %2, 12
  %26 = and i64 %25, 15
  %27 = getelementptr inbounds [9 x i32], ptr @_ZL22ZPointerLoadShiftTable, i64 0, i64 %26
  %28 = load i32, ptr %27, align 4
  %29 = load i64, ptr @ZAddressHeapBase, align 8
  %30 = zext i32 %28 to i64
  %31 = shl i64 %29, %30
  %32 = and i64 %31, %2
  %33 = tail call range(i64 0, 65) i64 @llvm.ctpop.i64(i64 %32)
  %or.cond43.i = icmp eq i64 %33, 1
  br i1 %or.cond43.i, label %34, label %.thread

34:                                               ; preds = %24
  %35 = shl i64 7, %30
  %36 = and i64 %35, %2
  %.not30.i = icmp eq i64 %36, 0
  br i1 %.not30.i, label %37, label %.thread

37:                                               ; preds = %34, %14
  %38 = and i64 %2, 61440
  %39 = tail call range(i64 0, 65) i64 @llvm.ctpop.i64(i64 %38)
  %or.cond45.i = icmp eq i64 %39, 1
  br i1 %or.cond45.i, label %40, label %.thread

40:                                               ; preds = %37
  %41 = and i64 %2, 768
  %42 = and i64 %2, 48
  %43 = tail call range(i64 0, 65) i64 @llvm.ctpop.i64(i64 %41)
  %or.cond47.i = icmp eq i64 %43, 1
  br i1 %or.cond47.i, label %44, label %.thread

44:                                               ; preds = %40
  %45 = and i64 %2, 3264
  %.not.i38.i = icmp eq i64 %45, 0
  br i1 %.not.i38.i, label %.thread, label %_Z13is_power_of_2ImTnNSt9enable_ifIXcvbsr3std11is_integralIT_EE5valueEiE4typeELi0EEbS1_.exit39.i

_Z13is_power_of_2ImTnNSt9enable_ifIXcvbsr3std11is_integralIT_EE5valueEiE4typeELi0EEbS1_.exit39.i: ; preds = %44
  %46 = tail call range(i64 0, 65) i64 @llvm.ctpop.i64(i64 %45)
  %47 = icmp ugt i64 %46, 1
  %48 = icmp eq i64 %42, 0
  %or.cond.i = or i1 %48, %47
  br i1 %or.cond.i, label %.thread, label %_Z8is_valid8zpointerb.exit

.thread:                                          ; preds = %44, %40, %37, %24, %_Z13is_power_of_2ImTnNSt9enable_ifIXcvbsr3std11is_integralIT_EE5valueEiE4typeELi0EEbS1_.exit39.i, %34, %20
  br i1 %.0.i.ph, label %.thread.thread, label %55

_Z8is_valid8zpointerb.exit:                       ; preds = %_Z13is_power_of_2ImTnNSt9enable_ifIXcvbsr3std11is_integralIT_EE5valueEiE4typeELi0EEbS1_.exit39.i
  %49 = and i64 %2, 15
  %.not32.i = icmp eq i64 %49, 0
  %brmerge.not = and i1 %.not32.i, %.0.i.ph
  br i1 %brmerge.not, label %55, label %50

50:                                               ; preds = %_Z8is_valid8zpointerb.exit
  br i1 %.not32.i, label %51, label %53

51:                                               ; preds = %50
  %52 = tail call noundef zeroext i1 @_ZNK5ZHeap14print_locationEP12outputStream8zpointer(ptr noundef nonnull align 64 dereferenceable(15937) %0, ptr noundef %1, i64 noundef %2)
  br label %55

53:                                               ; preds = %50
  br i1 %.0.i.ph, label %.thread.thread, label %55

.thread.thread:                                   ; preds = %3, %.thread, %53
  %54 = tail call noundef zeroext i1 @_ZNK5ZHeap14print_locationEP12outputStream8zaddress(ptr noundef nonnull align 64 dereferenceable(15937) %0, ptr noundef %1, i64 noundef %2)
  br label %55

55:                                               ; preds = %.thread, %53, %_Z8is_valid8zpointerb.exit, %.thread.thread, %51
  %.0 = phi i1 [ %52, %51 ], [ %54, %.thread.thread ], [ false, %_Z8is_valid8zpointerb.exit ], [ false, %53 ], [ false, %.thread ]
  ret i1 %.0
}